
build/prog.elf:     file format elf64-littleriscv


Disassembly of section .text:

0000000040000000 <_start>:
    40000000:	00000f97          	auipc	t6,0x0
    40000004:	580f8f93          	addi	t6,t6,1408 # 40000580 <TEST_DATA_BEGIN>
    40000008:	00000093          	li	ra,0
    4000000c:	00000113          	li	sp,0
    40000010:	0aa00193          	li	gp,170
    40000014:	00208463          	beq	ra,sp,4000001c <_start+0x1c>
    40000018:	0080006f          	j	40000020 <_start+0x20>
    4000001c:	05500193          	li	gp,85
    40000020:	003fb023          	sd	gp,0(t6)
    40000024:	008f8f93          	addi	t6,t6,8
    40000028:	06400093          	li	ra,100
    4000002c:	06400113          	li	sp,100
    40000030:	0aa00193          	li	gp,170
    40000034:	00208463          	beq	ra,sp,4000003c <_start+0x3c>
    40000038:	0080006f          	j	40000040 <_start+0x40>
    4000003c:	05500193          	li	gp,85
    40000040:	003fb023          	sd	gp,0(t6)
    40000044:	008f8f93          	addi	t6,t6,8
    40000048:	fce00093          	li	ra,-50
    4000004c:	fce00113          	li	sp,-50
    40000050:	0aa00193          	li	gp,170
    40000054:	00208463          	beq	ra,sp,4000005c <_start+0x5c>
    40000058:	0080006f          	j	40000060 <_start+0x60>
    4000005c:	05500193          	li	gp,85
    40000060:	003fb023          	sd	gp,0(t6)
    40000064:	008f8f93          	addi	t6,t6,8
    40000068:	00a00093          	li	ra,10
    4000006c:	01400113          	li	sp,20
    40000070:	0bb00193          	li	gp,187
    40000074:	00208663          	beq	ra,sp,40000080 <_start+0x80>
    40000078:	06600193          	li	gp,102
    4000007c:	0080006f          	j	40000084 <_start+0x84>
    40000080:	00000013          	nop
    40000084:	003fb023          	sd	gp,0(t6)
    40000088:	008f8f93          	addi	t6,t6,8
    4000008c:	ff600093          	li	ra,-10
    40000090:	fec00113          	li	sp,-20
    40000094:	0bb00193          	li	gp,187
    40000098:	00208663          	beq	ra,sp,400000a4 <_start+0xa4>
    4000009c:	06600193          	li	gp,102
    400000a0:	0080006f          	j	400000a8 <_start+0xa8>
    400000a4:	00000013          	nop
    400000a8:	003fb023          	sd	gp,0(t6)
    400000ac:	008f8f93          	addi	t6,t6,8
    400000b0:	00a00093          	li	ra,10
    400000b4:	ff600113          	li	sp,-10
    400000b8:	0bb00193          	li	gp,187
    400000bc:	00208663          	beq	ra,sp,400000c8 <_start+0xc8>
    400000c0:	06600193          	li	gp,102
    400000c4:	0080006f          	j	400000cc <_start+0xcc>
    400000c8:	00000013          	nop
    400000cc:	003fb023          	sd	gp,0(t6)
    400000d0:	008f8f93          	addi	t6,t6,8
    400000d4:	fff0009b          	addiw	ra,zero,-1
    400000d8:	03f09093          	slli	ra,ra,0x3f
    400000dc:	fff08093          	addi	ra,ra,-1
    400000e0:	fff0011b          	addiw	sp,zero,-1
    400000e4:	03f11113          	slli	sp,sp,0x3f
    400000e8:	fff10113          	addi	sp,sp,-1
    400000ec:	0aa00193          	li	gp,170
    400000f0:	00208463          	beq	ra,sp,400000f8 <_start+0xf8>
    400000f4:	0080006f          	j	400000fc <_start+0xfc>
    400000f8:	05500193          	li	gp,85
    400000fc:	003fb023          	sd	gp,0(t6)
    40000100:	008f8f93          	addi	t6,t6,8
    40000104:	fff0009b          	addiw	ra,zero,-1
    40000108:	03f09093          	slli	ra,ra,0x3f
    4000010c:	fff0011b          	addiw	sp,zero,-1
    40000110:	03f11113          	slli	sp,sp,0x3f
    40000114:	0aa00193          	li	gp,170
    40000118:	00208463          	beq	ra,sp,40000120 <_start+0x120>
    4000011c:	0080006f          	j	40000124 <_start+0x124>
    40000120:	05500193          	li	gp,85
    40000124:	003fb023          	sd	gp,0(t6)
    40000128:	008f8f93          	addi	t6,t6,8
    4000012c:	fff0009b          	addiw	ra,zero,-1
    40000130:	03f09093          	slli	ra,ra,0x3f
    40000134:	fff08093          	addi	ra,ra,-1
    40000138:	fff0011b          	addiw	sp,zero,-1
    4000013c:	03f11113          	slli	sp,sp,0x3f
    40000140:	0bb00193          	li	gp,187
    40000144:	00208663          	beq	ra,sp,40000150 <_start+0x150>
    40000148:	06600193          	li	gp,102
    4000014c:	0080006f          	j	40000154 <_start+0x154>
    40000150:	00000013          	nop
    40000154:	003fb023          	sd	gp,0(t6)
    40000158:	008f8f93          	addi	t6,t6,8
    4000015c:	0aa00193          	li	gp,170
    40000160:	00000463          	beqz	zero,40000168 <_start+0x168>
    40000164:	0080006f          	j	4000016c <_start+0x16c>
    40000168:	05500193          	li	gp,85
    4000016c:	003fb023          	sd	gp,0(t6)
    40000170:	008f8f93          	addi	t6,t6,8
    40000174:	000032b7          	lui	t0,0x3
    40000178:	0392829b          	addiw	t0,t0,57
    4000017c:	0aa00193          	li	gp,170
    40000180:	00528463          	beq	t0,t0,40000188 <_start+0x188>
    40000184:	0080006f          	j	4000018c <_start+0x18c>
    40000188:	05500193          	li	gp,85
    4000018c:	003fb023          	sd	gp,0(t6)
    40000190:	008f8f93          	addi	t6,t6,8
    40000194:	02a00093          	li	ra,42
    40000198:	02a00113          	li	sp,42
    4000019c:	0aa00193          	li	gp,170
    400001a0:	00208463          	beq	ra,sp,400001a8 <_start+0x1a8>
    400001a4:	0080006f          	j	400001ac <_start+0x1ac>
    400001a8:	05500193          	li	gp,85
    400001ac:	003fb023          	sd	gp,0(t6)
    400001b0:	008f8f93          	addi	t6,t6,8
    400001b4:	02a00213          	li	tp,42
    400001b8:	02a00293          	li	t0,42
    400001bc:	0aa00193          	li	gp,170
    400001c0:	00520463          	beq	tp,t0,400001c8 <_start+0x1c8>
    400001c4:	0080006f          	j	400001cc <_start+0x1cc>
    400001c8:	05500193          	li	gp,85
    400001cc:	003fb023          	sd	gp,0(t6)
    400001d0:	008f8f93          	addi	t6,t6,8
    400001d4:	02a00313          	li	t1,42
    400001d8:	02a00393          	li	t2,42
    400001dc:	0aa00193          	li	gp,170
    400001e0:	00730463          	beq	t1,t2,400001e8 <_start+0x1e8>
    400001e4:	0080006f          	j	400001ec <_start+0x1ec>
    400001e8:	05500193          	li	gp,85
    400001ec:	003fb023          	sd	gp,0(t6)
    400001f0:	008f8f93          	addi	t6,t6,8
    400001f4:	02a00413          	li	s0,42
    400001f8:	02a00493          	li	s1,42
    400001fc:	0aa00193          	li	gp,170
    40000200:	00940463          	beq	s0,s1,40000208 <_start+0x208>
    40000204:	0080006f          	j	4000020c <_start+0x20c>
    40000208:	05500193          	li	gp,85
    4000020c:	003fb023          	sd	gp,0(t6)
    40000210:	008f8f93          	addi	t6,t6,8
    40000214:	02a00513          	li	a0,42
    40000218:	02a00593          	li	a1,42
    4000021c:	0aa00193          	li	gp,170
    40000220:	00b50463          	beq	a0,a1,40000228 <_start+0x228>
    40000224:	0080006f          	j	4000022c <_start+0x22c>
    40000228:	05500193          	li	gp,85
    4000022c:	003fb023          	sd	gp,0(t6)
    40000230:	008f8f93          	addi	t6,t6,8
    40000234:	02a00613          	li	a2,42
    40000238:	02a00693          	li	a3,42
    4000023c:	0aa00193          	li	gp,170
    40000240:	00d60463          	beq	a2,a3,40000248 <_start+0x248>
    40000244:	0080006f          	j	4000024c <_start+0x24c>
    40000248:	05500193          	li	gp,85
    4000024c:	003fb023          	sd	gp,0(t6)
    40000250:	008f8f93          	addi	t6,t6,8
    40000254:	03200093          	li	ra,50
    40000258:	00008113          	mv	sp,ra
    4000025c:	0aa00193          	li	gp,170
    40000260:	00208463          	beq	ra,sp,40000268 <_start+0x268>
    40000264:	0080006f          	j	4000026c <_start+0x26c>
    40000268:	05500193          	li	gp,85
    4000026c:	003fb023          	sd	gp,0(t6)
    40000270:	008f8f93          	addi	t6,t6,8
    40000274:	01e00093          	li	ra,30
    40000278:	00008113          	mv	sp,ra
    4000027c:	00010093          	mv	ra,sp
    40000280:	0aa00193          	li	gp,170
    40000284:	00208463          	beq	ra,sp,4000028c <_start+0x28c>
    40000288:	0080006f          	j	40000290 <_start+0x290>
    4000028c:	05500193          	li	gp,85
    40000290:	003fb023          	sd	gp,0(t6)
    40000294:	008f8f93          	addi	t6,t6,8
    40000298:	2a600093          	li	ra,678
    4000029c:	7e500113          	li	sp,2021
    400002a0:	0bb00193          	li	gp,187
    400002a4:	00208663          	beq	ra,sp,400002b0 <_start+0x2b0>
    400002a8:	06600193          	li	gp,102
    400002ac:	0080006f          	j	400002b4 <_start+0x2b4>
    400002b0:	00000013          	nop
    400002b4:	003fb023          	sd	gp,0(t6)
    400002b8:	008f8f93          	addi	t6,t6,8
    400002bc:	6a200093          	li	ra,1698
    400002c0:	00008113          	mv	sp,ra
    400002c4:	0aa00193          	li	gp,170
    400002c8:	00208463          	beq	ra,sp,400002d0 <_start+0x2d0>
    400002cc:	0080006f          	j	400002d4 <_start+0x2d4>
    400002d0:	05500193          	li	gp,85
    400002d4:	003fb023          	sd	gp,0(t6)
    400002d8:	008f8f93          	addi	t6,t6,8
    400002dc:	25600093          	li	ra,598
    400002e0:	35100113          	li	sp,849
    400002e4:	0bb00193          	li	gp,187
    400002e8:	00208663          	beq	ra,sp,400002f4 <_start+0x2f4>
    400002ec:	06600193          	li	gp,102
    400002f0:	0080006f          	j	400002f8 <_start+0x2f8>
    400002f4:	00000013          	nop
    400002f8:	003fb023          	sd	gp,0(t6)
    400002fc:	008f8f93          	addi	t6,t6,8
    40000300:	60200093          	li	ra,1538
    40000304:	00008113          	mv	sp,ra
    40000308:	0aa00193          	li	gp,170
    4000030c:	00208463          	beq	ra,sp,40000314 <_start+0x314>
    40000310:	0080006f          	j	40000318 <_start+0x318>
    40000314:	05500193          	li	gp,85
    40000318:	003fb023          	sd	gp,0(t6)
    4000031c:	008f8f93          	addi	t6,t6,8
    40000320:	2c600093          	li	ra,710
    40000324:	f7d00113          	li	sp,-131
    40000328:	0bb00193          	li	gp,187
    4000032c:	00208663          	beq	ra,sp,40000338 <_start+0x338>
    40000330:	06600193          	li	gp,102
    40000334:	0080006f          	j	4000033c <_start+0x33c>
    40000338:	00000013          	nop
    4000033c:	003fb023          	sd	gp,0(t6)
    40000340:	008f8f93          	addi	t6,t6,8
    40000344:	62200093          	li	ra,1570
    40000348:	00008113          	mv	sp,ra
    4000034c:	0aa00193          	li	gp,170
    40000350:	00208463          	beq	ra,sp,40000358 <_start+0x358>
    40000354:	0080006f          	j	4000035c <_start+0x35c>
    40000358:	05500193          	li	gp,85
    4000035c:	003fb023          	sd	gp,0(t6)
    40000360:	008f8f93          	addi	t6,t6,8
    40000364:	2f600093          	li	ra,758
    40000368:	b6900113          	li	sp,-1175
    4000036c:	0bb00193          	li	gp,187
    40000370:	00208663          	beq	ra,sp,4000037c <_start+0x37c>
    40000374:	06600193          	li	gp,102
    40000378:	0080006f          	j	40000380 <_start+0x380>
    4000037c:	00000013          	nop
    40000380:	003fb023          	sd	gp,0(t6)
    40000384:	008f8f93          	addi	t6,t6,8
    40000388:	60200093          	li	ra,1538
    4000038c:	00008113          	mv	sp,ra
    40000390:	0aa00193          	li	gp,170
    40000394:	00208463          	beq	ra,sp,4000039c <_start+0x39c>
    40000398:	0080006f          	j	400003a0 <_start+0x3a0>
    4000039c:	05500193          	li	gp,85
    400003a0:	003fb023          	sd	gp,0(t6)
    400003a4:	008f8f93          	addi	t6,t6,8
    400003a8:	2e600093          	li	ra,742
    400003ac:	71500113          	li	sp,1813
    400003b0:	0bb00193          	li	gp,187
    400003b4:	00208663          	beq	ra,sp,400003c0 <_start+0x3c0>
    400003b8:	06600193          	li	gp,102
    400003bc:	0080006f          	j	400003c4 <_start+0x3c4>
    400003c0:	00000013          	nop
    400003c4:	003fb023          	sd	gp,0(t6)
    400003c8:	008f8f93          	addi	t6,t6,8
    400003cc:	6a200093          	li	ra,1698
    400003d0:	00008113          	mv	sp,ra
    400003d4:	0aa00193          	li	gp,170
    400003d8:	00208463          	beq	ra,sp,400003e0 <_start+0x3e0>
    400003dc:	0080006f          	j	400003e4 <_start+0x3e4>
    400003e0:	05500193          	li	gp,85
    400003e4:	003fb023          	sd	gp,0(t6)
    400003e8:	008f8f93          	addi	t6,t6,8
    400003ec:	29600093          	li	ra,662
    400003f0:	38100113          	li	sp,897
    400003f4:	0bb00193          	li	gp,187
    400003f8:	00208663          	beq	ra,sp,40000404 <_start+0x404>
    400003fc:	06600193          	li	gp,102
    40000400:	0080006f          	j	40000408 <_start+0x408>
    40000404:	00000013          	nop
    40000408:	003fb023          	sd	gp,0(t6)
    4000040c:	008f8f93          	addi	t6,t6,8
    40000410:	60200093          	li	ra,1538
    40000414:	00008113          	mv	sp,ra
    40000418:	0aa00193          	li	gp,170
    4000041c:	00208463          	beq	ra,sp,40000424 <_start+0x424>
    40000420:	0080006f          	j	40000428 <_start+0x428>
    40000424:	05500193          	li	gp,85
    40000428:	003fb023          	sd	gp,0(t6)
    4000042c:	008f8f93          	addi	t6,t6,8
    40000430:	20600093          	li	ra,518
    40000434:	fad00113          	li	sp,-83
    40000438:	0bb00193          	li	gp,187
    4000043c:	00208663          	beq	ra,sp,40000448 <_start+0x448>
    40000440:	06600193          	li	gp,102
    40000444:	0080006f          	j	4000044c <_start+0x44c>
    40000448:	00000013          	nop
    4000044c:	003fb023          	sd	gp,0(t6)
    40000450:	008f8f93          	addi	t6,t6,8
    40000454:	62200093          	li	ra,1570
    40000458:	00008113          	mv	sp,ra
    4000045c:	0aa00193          	li	gp,170
    40000460:	00208463          	beq	ra,sp,40000468 <_start+0x468>
    40000464:	0080006f          	j	4000046c <_start+0x46c>
    40000468:	05500193          	li	gp,85
    4000046c:	003fb023          	sd	gp,0(t6)
    40000470:	008f8f93          	addi	t6,t6,8
    40000474:	23600093          	li	ra,566
    40000478:	b9900113          	li	sp,-1127
    4000047c:	0bb00193          	li	gp,187
    40000480:	00208663          	beq	ra,sp,4000048c <_start+0x48c>
    40000484:	06600193          	li	gp,102
    40000488:	0080006f          	j	40000490 <_start+0x490>
    4000048c:	00000013          	nop
    40000490:	003fb023          	sd	gp,0(t6)
    40000494:	008f8f93          	addi	t6,t6,8
    40000498:	60200093          	li	ra,1538
    4000049c:	00008113          	mv	sp,ra
    400004a0:	0aa00193          	li	gp,170
    400004a4:	00208463          	beq	ra,sp,400004ac <_start+0x4ac>
    400004a8:	0080006f          	j	400004b0 <_start+0x4b0>
    400004ac:	05500193          	li	gp,85
    400004b0:	003fb023          	sd	gp,0(t6)
    400004b4:	008f8f93          	addi	t6,t6,8
    400004b8:	22600093          	li	ra,550
    400004bc:	74500113          	li	sp,1861
    400004c0:	0bb00193          	li	gp,187
    400004c4:	00208663          	beq	ra,sp,400004d0 <_start+0x4d0>
    400004c8:	06600193          	li	gp,102
    400004cc:	0080006f          	j	400004d4 <_start+0x4d4>
    400004d0:	00000013          	nop
    400004d4:	003fb023          	sd	gp,0(t6)
    400004d8:	008f8f93          	addi	t6,t6,8
    400004dc:	6a200093          	li	ra,1698
    400004e0:	00008113          	mv	sp,ra
    400004e4:	0aa00193          	li	gp,170
    400004e8:	00208463          	beq	ra,sp,400004f0 <_start+0x4f0>
    400004ec:	0080006f          	j	400004f4 <_start+0x4f4>
    400004f0:	05500193          	li	gp,85
    400004f4:	003fb023          	sd	gp,0(t6)
    400004f8:	008f8f93          	addi	t6,t6,8
    400004fc:	2d600093          	li	ra,726
    40000500:	3b100113          	li	sp,945
    40000504:	0bb00193          	li	gp,187
    40000508:	00208663          	beq	ra,sp,40000514 <_start+0x514>
    4000050c:	06600193          	li	gp,102
    40000510:	0080006f          	j	40000518 <_start+0x518>
    40000514:	00000013          	nop
    40000518:	003fb023          	sd	gp,0(t6)
    4000051c:	008f8f93          	addi	t6,t6,8
    40000520:	60200093          	li	ra,1538
    40000524:	00008113          	mv	sp,ra
    40000528:	0aa00193          	li	gp,170
    4000052c:	00208463          	beq	ra,sp,40000534 <_start+0x534>
    40000530:	0080006f          	j	40000538 <_start+0x538>
    40000534:	05500193          	li	gp,85
    40000538:	003fb023          	sd	gp,0(t6)
    4000053c:	008f8f93          	addi	t6,t6,8
    40000540:	00000293          	li	t0,0
    40000544:	0ff0000f          	fence
    40000548:	00028293          	mv	t0,t0
    4000054c:	e0000317          	auipc	t1,0xe0000
    40000550:	ab430313          	addi	t1,t1,-1356 # 20000000 <tohost>
    40000554:	00129293          	slli	t0,t0,0x1
    40000558:	0012e293          	ori	t0,t0,1
    4000055c:	00532023          	sw	t0,0(t1)
    40000560:	0ff0000f          	fence
    40000564:	00000397          	auipc	t2,0x0
    40000568:	00038067          	jr	t2 # 40000564 <_start+0x564>
